; Function Attrs: nounwind sspstrong uwtable
define dso_local zeroext i1 @migration_in_postcopy() local_unnamed_addr #0 {
entry:
  %0 = load ptr, ptr @current_migration, align 8
  %tobool.not.i = icmp eq ptr %0, null
  br i1 %tobool.not.i, label %if.else.i, label %migrate_get_current.exit

if.else.i:                                        ; preds = %entry
  tail call void @__assert_fail(ptr noundef nonnull @.str.5, ptr noundef nonnull @.str.2, i32 noundef 246, ptr noundef nonnull @__PRETTY_FUNCTION__.migrate_get_current) #20
  unreachable

migrate_get_current.exit:                         ; preds = %entry
  %state = getelementptr inbounds nuw i8, ptr %0, i64 776
  %1 = load i32, ptr %state, align 8
  %.off = add i32 %1, -5
  %switch = icmp ult i32 %.off, 3
  ret i1 %switch
}